target datalayout = "e-m:e-p270:32:32-p271:32:32-p272:64:64-i64:64-i128:128-f80:128-n8:16:32:64-S128"
target triple = "x86_64-pc-linux-gnu"

%struct.ssl_connection_st = type { %struct.ssl_st, ptr, i32, ptr, ptr, ptr, i32, ptr, i32, i32, i32, i32, %struct.OSSL_TIME, %struct.OSSL_TIME, %struct.ossl_statem_st, i32, ptr, ptr, i64, i64, i64, %struct.ossl_quic_tls_callbacks_st, ptr, ptr, %struct.anon, ptr, ptr, ptr, i32, ptr, %struct.ssl_dane_st, ptr, ptr, ptr, ptr, i32, [64 x i8], [64 x i8], [64 x i8], [64 x i8], [64 x i8], [64 x i8], [64 x i8], [64 x i8], [64 x i8], [64 x i8], [64 x i8], [64 x i8], ptr, [64 x i8], i64, i32, i64, [32 x i8], ptr, ptr, ptr, i64, ptr, [32 x i8], i64, i32, ptr, ptr, i32, i32, ptr, ptr, ptr, ptr, ptr, i64, ptr, ptr, i64, i32, i32, i32, i64, i32, i32, i64, i64, i64, %struct.anon.1, ptr, i32, ptr, ptr, ptr, i32, ptr, ptr, ptr, i32, i32, i32, i32, ptr, i64, i32, ptr, %struct.srp_ctx_st, ptr, %struct.record_layer_st, ptr, ptr, ptr, ptr, i64, i32, i32, i32, i64, i64, i64, ptr, ptr, ptr, ptr, ptr, i64, ptr, i64, ptr, i64 }
%struct.ssl_st = type { i32, ptr, ptr, ptr, %struct.CRYPTO_REF_COUNT, ptr, %struct.crypto_ex_data_st }
%struct.CRYPTO_REF_COUNT = type { i32 }
%struct.crypto_ex_data_st = type { ptr, ptr }
%struct.OSSL_TIME = type { i64 }
%struct.ossl_statem_st = type { i32, i32, i32, i32, i32, i32, i32, i32, i32, i32, i32, i32, i32, ptr, ptr, ptr, i8 }
%struct.ossl_quic_tls_callbacks_st = type { ptr, ptr, ptr, ptr, ptr, ptr }
%struct.anon = type { i64, [32 x i8], [32 x i8], ptr, ptr, i32, i32, i32, i32, [2 x i8], i32, i32, i32, i32, %struct.anon.0, [64 x i8], i64, [64 x i8], i64, i32, i32, ptr, i64, ptr, i64, i32, i8, i8, i16, ptr, i16 }
%struct.anon.0 = type { [128 x i8], i64, [128 x i8], i64, i64, i32, ptr, ptr, [4 x ptr], [4 x i16], i64, i32, ptr, i64, ptr, i64, ptr, ptr, ptr, i32, i64, ptr, i32, ptr, i64, ptr, i64, ptr, i64, ptr, ptr, ptr, ptr, i64, i64, ptr, ptr, i32, i32, i32, i32 }
%struct.ssl_dane_st = type { ptr, ptr, ptr, ptr, ptr, i32, i32, i32, i64 }
%struct.anon.1 = type { [29 x i8], ptr, ptr, ptr, i32, ptr, i16, i32, %struct.anon.2, i32, i32, i64, ptr, i64, ptr, i64, ptr, i64, ptr, i64, ptr, i64, ptr, ptr, ptr, ptr, ptr, ptr, ptr, i64, ptr, i64, i32, i32, i32, i32, ptr, i64, i32, i8, i32, [4 x i32], i32, i8, i8, i8, i8 }
%struct.anon.2 = type { ptr, ptr, ptr, i64 }
%struct.srp_ctx_st = type { ptr, ptr, ptr, ptr, ptr, ptr, ptr, ptr, ptr, ptr, ptr, ptr, ptr, ptr, i32, i64 }
%struct.record_layer_st = type { ptr, ptr, ptr, ptr, ptr, ptr, ptr, ptr, i64, i32, i64, [4 x i8], i64, i64, i8, ptr, i32, ptr, ptr, ptr, i64, i64, i64, i64, [32 x %struct.tls_record_st] }
%struct.tls_record_st = type { ptr, i32, i8, ptr, ptr, i64, i64, i16, [8 x i8] }

@.str.2 = private unnamed_addr constant [24 x i8] c"../openssl/ssl/s3_lib.c\00", align 1

; Function Attrs: inlinehint nounwind uwtable
define internal ptr @ossl_check_X509_NAME_freefunc_type(ptr noundef %0) #2 {
  %2 = alloca ptr, align 8
  store ptr %0, ptr %2, align 8, !tbaa !3
  %3 = load ptr, ptr %2, align 8, !tbaa !3
  ret ptr %3
}

; Function Attrs: inlinehint nounwind uwtable
define internal ptr @ossl_check_X509_NAME_sk_type(ptr noundef %0) #2 {
  %2 = alloca ptr, align 8
  store ptr %0, ptr %2, align 8, !tbaa !105
  %3 = load ptr, ptr %2, align 8, !tbaa !105
  ret ptr %3
}

; Function Attrs: nounwind uwtable
define void @ssl3_free(ptr noundef %0) #0 {
  %2 = alloca ptr, align 8
  %3 = alloca ptr, align 8
  %4 = alloca i64, align 8
  %5 = alloca i32, align 4
  store ptr %0, ptr %2, align 8, !tbaa !23
  call void @llvm.lifetime.start.p0(i64 8, ptr %3) #10
  %6 = load ptr, ptr %2, align 8, !tbaa !23
  %7 = icmp eq ptr %6, null
  br i1 %7, label %8, label %9

8:                                                ; preds = %1
  br label %30

9:                                                ; preds = %1
  %10 = load ptr, ptr %2, align 8, !tbaa !23
  %11 = getelementptr inbounds nuw %struct.ssl_st, ptr %10, i32 0, i32 0
  %12 = load i32, ptr %11, align 8, !tbaa !25
  %13 = icmp eq i32 %12, 0
  br i1 %13, label %14, label %16

14:                                               ; preds = %9
  %15 = load ptr, ptr %2, align 8, !tbaa !23
  br label %28

16:                                               ; preds = %9
  %17 = load ptr, ptr %2, align 8, !tbaa !23
  %18 = getelementptr inbounds nuw %struct.ssl_st, ptr %17, i32 0, i32 0
  %19 = load i32, ptr %18, align 8, !tbaa !25
  %20 = and i32 %19, 128
  %21 = icmp ne i32 %20, 0
  br i1 %21, label %22, label %25

22:                                               ; preds = %16
  %23 = load ptr, ptr %2, align 8, !tbaa !23
  %24 = call ptr @ossl_quic_obj_get0_handshake_layer(ptr noundef %23)
  br label %26

25:                                               ; preds = %16
  br label %26

26:                                               ; preds = %25, %22
  %27 = phi ptr [ %24, %22 ], [ null, %25 ]
  br label %28

28:                                               ; preds = %26, %14
  %29 = phi ptr [ %15, %14 ], [ %27, %26 ]
  br label %30

30:                                               ; preds = %28, %8
  %31 = phi ptr [ null, %8 ], [ %29, %28 ]
  store ptr %31, ptr %3, align 8, !tbaa !13
  call void @llvm.lifetime.start.p0(i64 8, ptr %4) #10
  %32 = load ptr, ptr %3, align 8, !tbaa !13
  %33 = icmp eq ptr %32, null
  br i1 %33, label %34, label %35

34:                                               ; preds = %30
  store i32 1, ptr %5, align 4
  br label %193

35:                                               ; preds = %30
  %36 = load ptr, ptr %3, align 8, !tbaa !13
  call void @ssl3_cleanup_key_block(ptr noundef %36)
  %37 = load ptr, ptr %3, align 8, !tbaa !13
  %38 = getelementptr inbounds nuw %struct.ssl_connection_st, ptr %37, i32 0, i32 24
  %39 = getelementptr inbounds nuw %struct.anon, ptr %38, i32 0, i32 29
  %40 = load ptr, ptr %39, align 8, !tbaa !37
  call void @EVP_PKEY_free(ptr noundef %40)
  %41 = load ptr, ptr %3, align 8, !tbaa !13
  %42 = getelementptr inbounds nuw %struct.ssl_connection_st, ptr %41, i32 0, i32 24
  %43 = getelementptr inbounds nuw %struct.anon, ptr %42, i32 0, i32 29
  store ptr null, ptr %43, align 8, !tbaa !37
  store i64 0, ptr %4, align 8, !tbaa !16
  br label %44

44:                                               ; preds = %95, %35
  %45 = load i64, ptr %4, align 8, !tbaa !16
  %46 = load ptr, ptr %3, align 8, !tbaa !13
  %47 = getelementptr inbounds nuw %struct.ssl_connection_st, ptr %46, i32 0, i32 24
  %48 = getelementptr inbounds nuw %struct.anon, ptr %47, i32 0, i32 14
  %49 = getelementptr inbounds nuw %struct.anon.0, ptr %48, i32 0, i32 10
  %50 = load i64, ptr %49, align 8, !tbaa !86
  %51 = icmp ult i64 %45, %50
  br i1 %51, label %52, label %98

52:                                               ; preds = %44
  %53 = load ptr, ptr %3, align 8, !tbaa !13
  %54 = getelementptr inbounds nuw %struct.ssl_connection_st, ptr %53, i32 0, i32 24
  %55 = getelementptr inbounds nuw %struct.anon, ptr %54, i32 0, i32 14
  %56 = getelementptr inbounds nuw %struct.anon.0, ptr %55, i32 0, i32 8
  %57 = load i64, ptr %4, align 8, !tbaa !16
  %58 = getelementptr inbounds nuw [4 x ptr], ptr %56, i64 0, i64 %57
  %59 = load ptr, ptr %58, align 8, !tbaa !87
  %60 = icmp ne ptr %59, null
  br i1 %60, label %61, label %94

61:                                               ; preds = %52
  %62 = load ptr, ptr %3, align 8, !tbaa !13
  %63 = getelementptr inbounds nuw %struct.ssl_connection_st, ptr %62, i32 0, i32 24
  %64 = getelementptr inbounds nuw %struct.anon, ptr %63, i32 0, i32 14
  %65 = getelementptr inbounds nuw %struct.anon.0, ptr %64, i32 0, i32 7
  %66 = load ptr, ptr %65, align 8, !tbaa !88
  %67 = load ptr, ptr %3, align 8, !tbaa !13
  %68 = getelementptr inbounds nuw %struct.ssl_connection_st, ptr %67, i32 0, i32 24
  %69 = getelementptr inbounds nuw %struct.anon, ptr %68, i32 0, i32 14
  %70 = getelementptr inbounds nuw %struct.anon.0, ptr %69, i32 0, i32 8
  %71 = load i64, ptr %4, align 8, !tbaa !16
  %72 = getelementptr inbounds nuw [4 x ptr], ptr %70, i64 0, i64 %71
  %73 = load ptr, ptr %72, align 8, !tbaa !87
  %74 = icmp eq ptr %66, %73
  br i1 %74, label %75, label %80

75:                                               ; preds = %61
  %76 = load ptr, ptr %3, align 8, !tbaa !13
  %77 = getelementptr inbounds nuw %struct.ssl_connection_st, ptr %76, i32 0, i32 24
  %78 = getelementptr inbounds nuw %struct.anon, ptr %77, i32 0, i32 14
  %79 = getelementptr inbounds nuw %struct.anon.0, ptr %78, i32 0, i32 7
  store ptr null, ptr %79, align 8, !tbaa !88
  br label %80

80:                                               ; preds = %75, %61
  %81 = load ptr, ptr %3, align 8, !tbaa !13
  %82 = getelementptr inbounds nuw %struct.ssl_connection_st, ptr %81, i32 0, i32 24
  %83 = getelementptr inbounds nuw %struct.anon, ptr %82, i32 0, i32 14
  %84 = getelementptr inbounds nuw %struct.anon.0, ptr %83, i32 0, i32 8
  %85 = load i64, ptr %4, align 8, !tbaa !16
  %86 = getelementptr inbounds nuw [4 x ptr], ptr %84, i64 0, i64 %85
  %87 = load ptr, ptr %86, align 8, !tbaa !87
  call void @EVP_PKEY_free(ptr noundef %87)
  %88 = load ptr, ptr %3, align 8, !tbaa !13
  %89 = getelementptr inbounds nuw %struct.ssl_connection_st, ptr %88, i32 0, i32 24
  %90 = getelementptr inbounds nuw %struct.anon, ptr %89, i32 0, i32 14
  %91 = getelementptr inbounds nuw %struct.anon.0, ptr %90, i32 0, i32 8
  %92 = load i64, ptr %4, align 8, !tbaa !16
  %93 = getelementptr inbounds nuw [4 x ptr], ptr %91, i64 0, i64 %92
  store ptr null, ptr %93, align 8, !tbaa !87
  br label %94

94:                                               ; preds = %80, %52
  br label %95

95:                                               ; preds = %94
  %96 = load i64, ptr %4, align 8, !tbaa !16
  %97 = add i64 %96, 1
  store i64 %97, ptr %4, align 8, !tbaa !16
  br label %44, !llvm.loop !89

98:                                               ; preds = %44
  %99 = load ptr, ptr %3, align 8, !tbaa !13
  %100 = getelementptr inbounds nuw %struct.ssl_connection_st, ptr %99, i32 0, i32 24
  %101 = getelementptr inbounds nuw %struct.anon, ptr %100, i32 0, i32 14
  %102 = getelementptr inbounds nuw %struct.anon.0, ptr %101, i32 0, i32 10
  store i64 0, ptr %102, align 8, !tbaa !86
  %103 = load ptr, ptr %3, align 8, !tbaa !13
  %104 = getelementptr inbounds nuw %struct.ssl_connection_st, ptr %103, i32 0, i32 24
  %105 = getelementptr inbounds nuw %struct.anon, ptr %104, i32 0, i32 14
  %106 = getelementptr inbounds nuw %struct.anon.0, ptr %105, i32 0, i32 7
  %107 = load ptr, ptr %106, align 8, !tbaa !88
  %108 = icmp ne ptr %107, null
  br i1 %108, label %109, label %119

109:                                              ; preds = %98
  %110 = load ptr, ptr %3, align 8, !tbaa !13
  %111 = getelementptr inbounds nuw %struct.ssl_connection_st, ptr %110, i32 0, i32 24
  %112 = getelementptr inbounds nuw %struct.anon, ptr %111, i32 0, i32 14
  %113 = getelementptr inbounds nuw %struct.anon.0, ptr %112, i32 0, i32 7
  %114 = load ptr, ptr %113, align 8, !tbaa !88
  call void @EVP_PKEY_free(ptr noundef %114)
  %115 = load ptr, ptr %3, align 8, !tbaa !13
  %116 = getelementptr inbounds nuw %struct.ssl_connection_st, ptr %115, i32 0, i32 24
  %117 = getelementptr inbounds nuw %struct.anon, ptr %116, i32 0, i32 14
  %118 = getelementptr inbounds nuw %struct.anon.0, ptr %117, i32 0, i32 7
  store ptr null, ptr %118, align 8, !tbaa !88
  br label %119

119:                                              ; preds = %109, %98
  %120 = load ptr, ptr %3, align 8, !tbaa !13
  %121 = getelementptr inbounds nuw %struct.ssl_connection_st, ptr %120, i32 0, i32 24
  %122 = getelementptr inbounds nuw %struct.anon, ptr %121, i32 0, i32 14
  %123 = getelementptr inbounds nuw %struct.anon.0, ptr %122, i32 0, i32 17
  %124 = load ptr, ptr %123, align 8, !tbaa !91
  call void @ssl_evp_cipher_free(ptr noundef %124)
  %125 = load ptr, ptr %3, align 8, !tbaa !13
  %126 = getelementptr inbounds nuw %struct.ssl_connection_st, ptr %125, i32 0, i32 24
  %127 = getelementptr inbounds nuw %struct.anon, ptr %126, i32 0, i32 14
  %128 = getelementptr inbounds nuw %struct.anon.0, ptr %127, i32 0, i32 18
  %129 = load ptr, ptr %128, align 8, !tbaa !92
  call void @ssl_evp_md_free(ptr noundef %129)
  %130 = load ptr, ptr %3, align 8, !tbaa !13
  %131 = getelementptr inbounds nuw %struct.ssl_connection_st, ptr %130, i32 0, i32 24
  %132 = getelementptr inbounds nuw %struct.anon, ptr %131, i32 0, i32 14
  %133 = getelementptr inbounds nuw %struct.anon.0, ptr %132, i32 0, i32 12
  %134 = load ptr, ptr %133, align 8, !tbaa !93
  call void @CRYPTO_free(ptr noundef %134, ptr noundef @.str.2, i32 noundef 3435)
  %135 = load ptr, ptr %3, align 8, !tbaa !13
  %136 = getelementptr inbounds nuw %struct.ssl_connection_st, ptr %135, i32 0, i32 24
  %137 = getelementptr inbounds nuw %struct.anon, ptr %136, i32 0, i32 14
  %138 = getelementptr inbounds nuw %struct.anon.0, ptr %137, i32 0, i32 14
  %139 = load ptr, ptr %138, align 8, !tbaa !94
  %140 = call ptr @ossl_check_X509_NAME_sk_type(ptr noundef %139)
  %141 = call ptr @ossl_check_X509_NAME_freefunc_type(ptr noundef @X509_NAME_free)
  call void @OPENSSL_sk_pop_free(ptr noundef %140, ptr noundef %141)
  %142 = load ptr, ptr %3, align 8, !tbaa !13
  %143 = getelementptr inbounds nuw %struct.ssl_connection_st, ptr %142, i32 0, i32 24
  %144 = getelementptr inbounds nuw %struct.anon, ptr %143, i32 0, i32 14
  %145 = getelementptr inbounds nuw %struct.anon.0, ptr %144, i32 0, i32 23
  %146 = load ptr, ptr %145, align 8, !tbaa !95
  call void @CRYPTO_free(ptr noundef %146, ptr noundef @.str.2, i32 noundef 3437)
  %147 = load ptr, ptr %3, align 8, !tbaa !13
  %148 = getelementptr inbounds nuw %struct.ssl_connection_st, ptr %147, i32 0, i32 24
  %149 = getelementptr inbounds nuw %struct.anon, ptr %148, i32 0, i32 14
  %150 = getelementptr inbounds nuw %struct.anon.0, ptr %149, i32 0, i32 25
  %151 = load ptr, ptr %150, align 8, !tbaa !96
  %152 = load ptr, ptr %3, align 8, !tbaa !13
  %153 = getelementptr inbounds nuw %struct.ssl_connection_st, ptr %152, i32 0, i32 24
  %154 = getelementptr inbounds nuw %struct.anon, ptr %153, i32 0, i32 14
  %155 = getelementptr inbounds nuw %struct.anon.0, ptr %154, i32 0, i32 26
  %156 = load i64, ptr %155, align 8, !tbaa !97
  call void @CRYPTO_clear_free(ptr noundef %151, i64 noundef %156, ptr noundef @.str.2, i32 noundef 3438)
  %157 = load ptr, ptr %3, align 8, !tbaa !13
  %158 = getelementptr inbounds nuw %struct.ssl_connection_st, ptr %157, i32 0, i32 24
  %159 = getelementptr inbounds nuw %struct.anon, ptr %158, i32 0, i32 14
  %160 = getelementptr inbounds nuw %struct.anon.0, ptr %159, i32 0, i32 31
  %161 = load ptr, ptr %160, align 8, !tbaa !98
  call void @CRYPTO_free(ptr noundef %161, ptr noundef @.str.2, i32 noundef 3439)
  %162 = load ptr, ptr %3, align 8, !tbaa !13
  %163 = getelementptr inbounds nuw %struct.ssl_connection_st, ptr %162, i32 0, i32 24
  %164 = getelementptr inbounds nuw %struct.anon, ptr %163, i32 0, i32 14
  %165 = getelementptr inbounds nuw %struct.anon.0, ptr %164, i32 0, i32 32
  %166 = load ptr, ptr %165, align 8, !tbaa !99
  call void @CRYPTO_free(ptr noundef %166, ptr noundef @.str.2, i32 noundef 3440)
  %167 = load ptr, ptr %3, align 8, !tbaa !13
  %168 = getelementptr inbounds nuw %struct.ssl_connection_st, ptr %167, i32 0, i32 24
  %169 = getelementptr inbounds nuw %struct.anon, ptr %168, i32 0, i32 14
  %170 = getelementptr inbounds nuw %struct.anon.0, ptr %169, i32 0, i32 36
  %171 = load ptr, ptr %170, align 8, !tbaa !100
  call void @CRYPTO_free(ptr noundef %171, ptr noundef @.str.2, i32 noundef 3441)
  %172 = load ptr, ptr %3, align 8, !tbaa !13
  call void @ssl3_free_digest_list(ptr noundef %172)
  %173 = load ptr, ptr %3, align 8, !tbaa !13
  %174 = getelementptr inbounds nuw %struct.ssl_connection_st, ptr %173, i32 0, i32 24
  %175 = getelementptr inbounds nuw %struct.anon, ptr %174, i32 0, i32 21
  %176 = load ptr, ptr %175, align 8, !tbaa !101
  call void @CRYPTO_free(ptr noundef %176, ptr noundef @.str.2, i32 noundef 3443)
  %177 = load ptr, ptr %3, align 8, !tbaa !13
  %178 = getelementptr inbounds nuw %struct.ssl_connection_st, ptr %177, i32 0, i32 24
  %179 = getelementptr inbounds nuw %struct.anon, ptr %178, i32 0, i32 23
  %180 = load ptr, ptr %179, align 8, !tbaa !102
  call void @CRYPTO_free(ptr noundef %180, ptr noundef @.str.2, i32 noundef 3444)
  %181 = load ptr, ptr %3, align 8, !tbaa !13
  %182 = getelementptr inbounds nuw %struct.ssl_connection_st, ptr %181, i32 0, i32 23
  %183 = load ptr, ptr %182, align 8, !tbaa !103
  call void @ossl_quic_tls_free(ptr noundef %183)
  %184 = load ptr, ptr %3, align 8, !tbaa !13
  %185 = getelementptr inbounds nuw %struct.ssl_connection_st, ptr %184, i32 0, i32 24
  %186 = getelementptr inbounds nuw %struct.anon, ptr %185, i32 0, i32 14
  %187 = getelementptr inbounds nuw %struct.anon.0, ptr %186, i32 0, i32 27
  %188 = load ptr, ptr %187, align 8, !tbaa !104
  call void @CRYPTO_free(ptr noundef %188, ptr noundef @.str.2, i32 noundef 3448)
  %189 = load ptr, ptr %3, align 8, !tbaa !13
  %190 = call i32 @ssl_srp_ctx_free_intern(ptr noundef %189)
  %191 = load ptr, ptr %3, align 8, !tbaa !13
  %192 = getelementptr inbounds nuw %struct.ssl_connection_st, ptr %191, i32 0, i32 24
  call void @llvm.memset.p0.i64(ptr align 8 %192, i8 0, i64 912, i1 false)
  store i32 0, ptr %5, align 4
  br label %193

193:                                              ; preds = %119, %34
  call void @llvm.lifetime.end.p0(i64 8, ptr %4) #10
  call void @llvm.lifetime.end.p0(i64 8, ptr %3) #10
  %194 = load i32, ptr %5, align 4
  switch i32 %194, label %196 [
    i32 0, label %195
    i32 1, label %195
  ]

195:                                              ; preds = %193, %193
  ret void

196:                                              ; preds = %193
  unreachable
}