; Function Attrs: nounwind uwtable
define void @ssl3_free(ptr noundef %0) local_unnamed_addr #4 {
  %2 = icmp eq ptr %0, null
  br i1 %2, label %.thread, label %3

3:                                                ; preds = %1
  %4 = load i32, ptr %0, align 8, !tbaa !10
  %5 = icmp eq i32 %4, 0
  br i1 %5, label %.thread49, label %6

6:                                                ; preds = %3
  %7 = and i32 %4, 128
  %.not = icmp eq i32 %7, 0
  br i1 %.not, label %.thread, label %8

8:                                                ; preds = %6
  %9 = tail call ptr @ossl_quic_obj_get0_handshake_layer(ptr noundef nonnull %0) #18
  %10 = icmp eq ptr %9, null
  br i1 %10, label %.thread, label %.thread49

.thread49:                                        ; preds = %3, %8
  %11 = phi ptr [ %9, %8 ], [ %0, %3 ]
  tail call void @ssl3_cleanup_key_block(ptr noundef nonnull %11) #18
  %12 = getelementptr inbounds nuw i8, ptr %11, i64 352
  %13 = getelementptr inbounds nuw i8, ptr %11, i64 1248
  %14 = load ptr, ptr %13, align 8, !tbaa !23
  tail call void @EVP_PKEY_free(ptr noundef %14) #18
  store ptr null, ptr %13, align 8, !tbaa !23
  %15 = getelementptr inbounds nuw i8, ptr %11, i64 824
  %16 = load i64, ptr %15, align 8, !tbaa !76
  %.not51 = icmp eq i64 %16, 0
  br i1 %.not51, label %._crit_edge, label %.lr.ph

.lr.ph:                                           ; preds = %.thread49
  %17 = getelementptr inbounds nuw i8, ptr %11, i64 784
  %18 = getelementptr inbounds nuw i8, ptr %11, i64 776
  br label %19

19:                                               ; preds = %.lr.ph, %28
  %20 = phi i64 [ %16, %.lr.ph ], [ %29, %28 ]
  %.050 = phi i64 [ 0, %.lr.ph ], [ %30, %28 ]
  %21 = getelementptr inbounds nuw [4 x ptr], ptr %17, i64 0, i64 %.050
  %22 = load ptr, ptr %21, align 8, !tbaa !77
  %.not48 = icmp eq ptr %22, null
  br i1 %.not48, label %28, label %23

23:                                               ; preds = %19
  %24 = load ptr, ptr %18, align 8, !tbaa !78
  %25 = icmp eq ptr %24, %22
  br i1 %25, label %26, label %27

26:                                               ; preds = %23
  store ptr null, ptr %18, align 8, !tbaa !78
  br label %27

27:                                               ; preds = %26, %23
  tail call void @EVP_PKEY_free(ptr noundef nonnull %22) #18
  store ptr null, ptr %21, align 8, !tbaa !77
  %.pre = load i64, ptr %15, align 8, !tbaa !76
  br label %28

28:                                               ; preds = %19, %27
  %29 = phi i64 [ %20, %19 ], [ %.pre, %27 ]
  %30 = add nuw i64 %.050, 1
  %31 = icmp ult i64 %30, %29
  br i1 %31, label %19, label %._crit_edge, !llvm.loop !79

._crit_edge:                                      ; preds = %28, %.thread49
  store i64 0, ptr %15, align 8, !tbaa !76
  %32 = getelementptr inbounds nuw i8, ptr %11, i64 776
  %33 = load ptr, ptr %32, align 8, !tbaa !78
  %.not47 = icmp eq ptr %33, null
  br i1 %.not47, label %35, label %34

34:                                               ; preds = %._crit_edge
  tail call void @EVP_PKEY_free(ptr noundef nonnull %33) #18
  store ptr null, ptr %32, align 8, !tbaa !78
  br label %35

35:                                               ; preds = %34, %._crit_edge
  %36 = getelementptr inbounds nuw i8, ptr %11, i64 880
  %37 = load ptr, ptr %36, align 8, !tbaa !81
  tail call void @ssl_evp_cipher_free(ptr noundef %37) #18
  %38 = getelementptr inbounds nuw i8, ptr %11, i64 888
  %39 = load ptr, ptr %38, align 8, !tbaa !82
  tail call void @ssl_evp_md_free(ptr noundef %39) #18
  %40 = getelementptr inbounds nuw i8, ptr %11, i64 840
  %41 = load ptr, ptr %40, align 8, !tbaa !83
  tail call void @CRYPTO_free(ptr noundef %41, ptr noundef nonnull @.str.2, i32 noundef 3435) #18
  %42 = getelementptr inbounds nuw i8, ptr %11, i64 856
  %43 = load ptr, ptr %42, align 8, !tbaa !84
  tail call void @OPENSSL_sk_pop_free(ptr noundef %43, ptr noundef nonnull @X509_NAME_free) #18
  %44 = getelementptr inbounds nuw i8, ptr %11, i64 928
  %45 = load ptr, ptr %44, align 8, !tbaa !85
  tail call void @CRYPTO_free(ptr noundef %45, ptr noundef nonnull @.str.2, i32 noundef 3437) #18
  %46 = getelementptr inbounds nuw i8, ptr %11, i64 944
  %47 = load ptr, ptr %46, align 8, !tbaa !86
  %48 = getelementptr inbounds nuw i8, ptr %11, i64 952
  %49 = load i64, ptr %48, align 8, !tbaa !87
  tail call void @CRYPTO_clear_free(ptr noundef %47, i64 noundef %49, ptr noundef nonnull @.str.2, i32 noundef 3438) #18
  %50 = getelementptr inbounds nuw i8, ptr %11, i64 992
  %51 = load ptr, ptr %50, align 8, !tbaa !88
  tail call void @CRYPTO_free(ptr noundef %51, ptr noundef nonnull @.str.2, i32 noundef 3439) #18
  %52 = getelementptr inbounds nuw i8, ptr %11, i64 1000
  %53 = load ptr, ptr %52, align 8, !tbaa !89
  tail call void @CRYPTO_free(ptr noundef %53, ptr noundef nonnull @.str.2, i32 noundef 3440) #18
  %54 = getelementptr inbounds nuw i8, ptr %11, i64 1032
  %55 = load ptr, ptr %54, align 8, !tbaa !90
  tail call void @CRYPTO_free(ptr noundef %55, ptr noundef nonnull @.str.2, i32 noundef 3441) #18
  tail call void @ssl3_free_digest_list(ptr noundef nonnull %11) #18
  %56 = getelementptr inbounds nuw i8, ptr %11, i64 1208
  %57 = load ptr, ptr %56, align 8, !tbaa !91
  tail call void @CRYPTO_free(ptr noundef %57, ptr noundef nonnull @.str.2, i32 noundef 3443) #18
  %58 = getelementptr inbounds nuw i8, ptr %11, i64 1224
  %59 = load ptr, ptr %58, align 8, !tbaa !92
  tail call void @CRYPTO_free(ptr noundef %59, ptr noundef nonnull @.str.2, i32 noundef 3444) #18
  %60 = getelementptr inbounds nuw i8, ptr %11, i64 344
  %61 = load ptr, ptr %60, align 8, !tbaa !93
  tail call void @ossl_quic_tls_free(ptr noundef %61) #18
  %62 = getelementptr inbounds nuw i8, ptr %11, i64 960
  %63 = load ptr, ptr %62, align 8, !tbaa !94
  tail call void @CRYPTO_free(ptr noundef %63, ptr noundef nonnull @.str.2, i32 noundef 3448) #18
  %64 = tail call i32 @ssl_srp_ctx_free_intern(ptr noundef nonnull %11) #18
  tail call void @llvm.memset.p0.i64(ptr noundef nonnull align 8 dereferenceable(912) %12, i8 0, i64 912, i1 false)
  br label %.thread

.thread:                                          ; preds = %6, %1, %8, %35
  ret void
}